; Function Attrs: mustprogress ssp uwtable
define void @_ZN6open3d13visualization30ViewControlWithCustomAnimation8GoToLastEv(ptr noundef nonnull align 16 dereferenceable(816) %0) local_unnamed_addr #1 align 2 {
  %2 = getelementptr inbounds nuw i8, ptr %0, i64 744
  %3 = load ptr, ptr %2, align 8, !tbaa !53
  %4 = getelementptr inbounds nuw i8, ptr %0, i64 752
  %5 = load ptr, ptr %4, align 16, !tbaa !53
  %6 = icmp eq ptr %3, %5
  br i1 %6, label %41, label %7

7:                                                ; preds = %1
  %8 = getelementptr inbounds nuw i8, ptr %0, i64 728
  %9 = load i32, ptr %8, align 8, !tbaa !26
  %10 = icmp eq i32 %9, 0
  br i1 %10, label %11, label %19

11:                                               ; preds = %7
  %12 = ptrtoint ptr %5 to i64
  %13 = ptrtoint ptr %3 to i64
  %14 = sub i64 %12, %13
  %15 = sdiv exact i64 %14, 144
  %16 = uitofp i64 %15 to double
  %17 = fadd double %16, -1.000000e+00
  %18 = getelementptr inbounds nuw i8, ptr %0, i64 808
  store double %17, ptr %18, align 8, !tbaa !83
  br label %40

19:                                               ; preds = %7
  %20 = getelementptr inbounds nuw i8, ptr %0, i64 768
  %21 = load i8, ptr %20, align 16, !tbaa !107, !range !94, !noundef !95
  %22 = trunc nuw i8 %21 to i1
  %23 = getelementptr inbounds nuw i8, ptr %0, i64 772
  %24 = load i32, ptr %23, align 4, !tbaa !108
  %25 = add nsw i32 %24, 1
  %26 = sext i32 %25 to i64
  %27 = ptrtoint ptr %5 to i64
  %28 = ptrtoint ptr %3 to i64
  %29 = sub i64 %27, %28
  %30 = sdiv exact i64 %29, 144
  br i1 %22, label %31, label %33

31:                                               ; preds = %19
  %32 = mul i64 %30, %26
  br label %_ZNK6open3d13visualization14ViewTrajectory11NumOfFramesEv.exit

33:                                               ; preds = %19
  %34 = add nsw i64 %30, -1
  %35 = mul i64 %34, %26
  %36 = add i64 %35, 1
  br label %_ZNK6open3d13visualization14ViewTrajectory11NumOfFramesEv.exit

_ZNK6open3d13visualization14ViewTrajectory11NumOfFramesEv.exit: ; preds = %31, %33
  %.0.i = phi i64 [ %32, %31 ], [ %36, %33 ]
  %37 = uitofp i64 %.0.i to double
  %38 = fadd double %37, -1.000000e+00
  %39 = getelementptr inbounds nuw i8, ptr %0, i64 800
  store double %38, ptr %39, align 16, !tbaa !84
  br label %40

40:                                               ; preds = %_ZNK6open3d13visualization14ViewTrajectory11NumOfFramesEv.exit, %11
  tail call void @_ZN6open3d13visualization30ViewControlWithCustomAnimation28SetViewControlFromTrajectoryEv(ptr noundef nonnull align 16 dereferenceable(816) %0)
  br label %41

41:                                               ; preds = %1, %40
  ret void
}